target datalayout = "e-m:e-p270:32:32-p271:32:32-p272:64:64-i64:64-i128:128-f80:128-n8:16:32:64-S128"
target triple = "x86_64-pc-linux-gnu"

%struct.expert_field = type { i32, i32 }

@ei_gsm_sms_short_data = internal global %struct.expert_field zeroinitializer, align 4
@hf_gsm_sms_dis_iei_sa_position = internal global i32 0, align 4
@hf_gsm_sms_dis_iei_sa_small_animation = internal global i32 0, align 4

; Function Attrs: null_pointer_is_valid sspstrong uwtable
define internal void @dis_iei_sa(ptr noundef %0, ptr noundef %1, ptr noundef %2, i32 noundef %3, i8 noundef zeroext %4, ptr noundef %5) #0 {
  %7 = alloca ptr, align 8
  %8 = alloca ptr, align 8
  %9 = alloca ptr, align 8
  %10 = alloca i32, align 4
  %11 = alloca i8, align 1
  %12 = alloca ptr, align 8
  store ptr %0, ptr %7, align 8
  store ptr %1, ptr %8, align 8
  store ptr %2, ptr %9, align 8
  store i32 %3, ptr %10, align 4
  store i8 %4, ptr %11, align 1
  store ptr %5, ptr %12, align 8
  %13 = load i8, ptr %11, align 1
  %14 = zext i8 %13 to i32
  %15 = icmp slt i32 %14, 2
  br i1 %15, label %16, label %24

16:                                               ; preds = %6
  %17 = load ptr, ptr %9, align 8
  %18 = load ptr, ptr %8, align 8
  %19 = load ptr, ptr %7, align 8
  %20 = load i32, ptr %10, align 4
  %21 = load i8, ptr %11, align 1
  %22 = zext i8 %21 to i32
  %23 = call ptr @proto_tree_add_expert(ptr noundef %17, ptr noundef %18, ptr noundef @ei_gsm_sms_short_data, ptr noundef %19, i32 noundef %20, i32 noundef %22)
  br label %40

24:                                               ; preds = %6
  %25 = load ptr, ptr %9, align 8
  %26 = load i32, ptr @hf_gsm_sms_dis_iei_sa_position, align 4
  %27 = load ptr, ptr %7, align 8
  %28 = load i32, ptr %10, align 4
  %29 = call ptr @proto_tree_add_item(ptr noundef %25, i32 noundef %26, ptr noundef %27, i32 noundef %28, i32 noundef 1, i32 noundef 0)
  %30 = load i32, ptr %10, align 4
  %31 = add i32 %30, 1
  store i32 %31, ptr %10, align 4
  %32 = load ptr, ptr %9, align 8
  %33 = load i32, ptr @hf_gsm_sms_dis_iei_sa_small_animation, align 4
  %34 = load ptr, ptr %7, align 8
  %35 = load i32, ptr %10, align 4
  %36 = load i8, ptr %11, align 1
  %37 = zext i8 %36 to i32
  %38 = sub i32 %37, 1
  %39 = call ptr @proto_tree_add_item(ptr noundef %32, i32 noundef %33, ptr noundef %34, i32 noundef %35, i32 noundef %38, i32 noundef 0)
  br label %40

40:                                               ; preds = %24, %16
  ret void
}